target datalayout = "e-m:e-p270:32:32-p271:32:32-p272:64:64-i64:64-i128:128-f80:128-n8:16:32:64-S128"
target triple = "x86_64-pc-linux-gnu"

%struct._object = type { %union.anon, ptr }
%union.anon = type { i64 }
%struct._typeobject = type { %struct.PyVarObject, ptr, i64, i64, ptr, i64, ptr, ptr, ptr, ptr, ptr, ptr, ptr, ptr, ptr, ptr, ptr, ptr, ptr, i64, ptr, ptr, ptr, ptr, i64, ptr, ptr, ptr, ptr, ptr, ptr, ptr, ptr, ptr, i64, ptr, ptr, ptr, ptr, ptr, ptr, ptr, ptr, ptr, ptr, ptr, i32, ptr, ptr, i8, i16 }
%struct.PyVarObject = type { %struct._object, i64 }
%struct.PyStructObject = type { %struct._object, i64, i64, ptr, ptr, ptr }
%struct._formatcode = type { ptr, i64, i64, i64 }

; Function Attrs: inlinehint nounwind uwtable
define internal i64 @_PyObject_SIZE(ptr noundef %0) #2 {
  %2 = alloca ptr, align 8
  store ptr %0, ptr %2, align 8, !tbaa !59
  %3 = load ptr, ptr %2, align 8, !tbaa !59
  %4 = getelementptr inbounds nuw %struct._typeobject, ptr %3, i32 0, i32 2
  %5 = load i64, ptr %4, align 8, !tbaa !81
  ret i64 %5
}

; Function Attrs: inlinehint nounwind uwtable
define internal ptr @_Py_TYPE(ptr noundef %0) #2 {
  %2 = alloca ptr, align 8
  store ptr %0, ptr %2, align 8, !tbaa !3
  %3 = load ptr, ptr %2, align 8, !tbaa !3
  %4 = getelementptr inbounds nuw %struct._object, ptr %3, i32 0, i32 1
  %5 = load ptr, ptr %4, align 8, !tbaa !41
  ret ptr %5
}

; Function Attrs: nounwind uwtable
define internal ptr @s_sizeof(ptr noundef %0, ptr noundef %1) #0 {
  %3 = alloca ptr, align 8
  %4 = alloca ptr, align 8
  %5 = alloca i64, align 8
  %6 = alloca ptr, align 8
  store ptr %0, ptr %3, align 8, !tbaa !8
  store ptr %1, ptr %4, align 8, !tbaa !8
  call void @llvm.lifetime.start.p0(i64 8, ptr %5) #8
  %7 = load ptr, ptr %3, align 8, !tbaa !8
  %8 = call ptr @_Py_TYPE(ptr noundef %7)
  %9 = call i64 @_PyObject_SIZE(ptr noundef %8)
  %10 = add i64 %9, 32
  store i64 %10, ptr %5, align 8, !tbaa !18
  call void @llvm.lifetime.start.p0(i64 8, ptr %6) #8
  %11 = load ptr, ptr %3, align 8, !tbaa !8
  %12 = getelementptr inbounds nuw %struct.PyStructObject, ptr %11, i32 0, i32 3
  %13 = load ptr, ptr %12, align 8, !tbaa !44
  store ptr %13, ptr %6, align 8, !tbaa !45
  br label %14

14:                                               ; preds = %23, %2
  %15 = load ptr, ptr %6, align 8, !tbaa !45
  %16 = getelementptr inbounds nuw %struct._formatcode, ptr %15, i32 0, i32 0
  %17 = load ptr, ptr %16, align 8, !tbaa !46
  %18 = icmp ne ptr %17, null
  br i1 %18, label %20, label %19

19:                                               ; preds = %14
  call void @llvm.lifetime.end.p0(i64 8, ptr %6) #8
  br label %26

20:                                               ; preds = %14
  %21 = load i64, ptr %5, align 8, !tbaa !18
  %22 = add i64 %21, 32
  store i64 %22, ptr %5, align 8, !tbaa !18
  br label %23

23:                                               ; preds = %20
  %24 = load ptr, ptr %6, align 8, !tbaa !45
  %25 = getelementptr %struct._formatcode, ptr %24, i32 1
  store ptr %25, ptr %6, align 8, !tbaa !45
  br label %14, !llvm.loop !80

26:                                               ; preds = %19
  %27 = load i64, ptr %5, align 8, !tbaa !18
  %28 = call ptr @PyLong_FromSize_t(i64 noundef %27)
  call void @llvm.lifetime.end.p0(i64 8, ptr %5) #8
  ret ptr %28
}