; Function Attrs: nounwind uwtable
define internal ptr @s_sizeof(ptr noundef readonly captures(none) %0, ptr readnone captures(none) %1) #0 {
  %3 = getelementptr i8, ptr %0, i64 8
  %.val = load ptr, ptr %3, align 8, !tbaa !24
  %4 = getelementptr i8, ptr %.val, i64 32
  %.val6 = load i64, ptr %4, align 8, !tbaa !79
  %5 = getelementptr inbounds nuw i8, ptr %0, i64 32
  %6 = load ptr, ptr %5, align 8, !tbaa !43
  br label %7

7:                                                ; preds = %7, %2
  %.05.in = phi i64 [ %.val6, %2 ], [ %.05, %7 ]
  %.0 = phi ptr [ %6, %2 ], [ %9, %7 ]
  %.05 = add i64 %.05.in, 32
  %8 = load ptr, ptr %.0, align 8, !tbaa !44
  %.not = icmp eq ptr %8, null
  %9 = getelementptr i8, ptr %.0, i64 32
  br i1 %.not, label %10, label %7, !llvm.loop !80

10:                                               ; preds = %7
  %11 = tail call ptr @PyLong_FromSize_t(i64 noundef %.05) #7
  ret ptr %11
}